target datalayout = "e-m:e-p270:32:32-p271:32:32-p272:64:64-i64:64-i128:128-f80:128-n8:16:32:64-S128"
target triple = "x86_64-pc-linux-gnu"

@.str.4 = private unnamed_addr constant [5 x i8] c"%s%s\00", align 1
@.str.6 = private unnamed_addr constant [1 x i8] zeroinitializer, align 1

; Function Attrs: nounwind uwtable
define internal ptr @GENERIC_INTERNAL_CreateFullPath(ptr noundef %0, ptr noundef %1) #0 {
  %3 = alloca ptr, align 8
  %4 = alloca ptr, align 8
  %5 = alloca ptr, align 8
  store ptr %0, ptr %3, align 8
  store ptr %1, ptr %4, align 8
  call void @llvm.lifetime.start.p0(i64 8, ptr %5) #3
  store ptr null, ptr %5, align 8
  %6 = load ptr, ptr %3, align 8
  %7 = icmp ne ptr %6, null
  br i1 %7, label %8, label %10

8:                                                ; preds = %2
  %9 = load ptr, ptr %3, align 8
  br label %11

10:                                               ; preds = %2
  br label %11

11:                                               ; preds = %10, %8
  %12 = phi ptr [ %9, %8 ], [ @.str.6, %10 ]
  %13 = load ptr, ptr %4, align 8
  %14 = call i32 (ptr, ptr, ...) @SDL_asprintf_REAL(ptr noundef %5, ptr noundef @.str.4, ptr noundef %12, ptr noundef %13)
  %15 = load ptr, ptr %5, align 8
  call void @llvm.lifetime.end.p0(i64 8, ptr %5) #3
  ret ptr %15
}

; Function Attrs: nounwind uwtable
define internal zeroext i1 @GENERIC_RenameStoragePath(ptr noundef %0, ptr noundef %1, ptr noundef %2) #0 {
  %4 = alloca ptr, align 8
  %5 = alloca ptr, align 8
  %6 = alloca ptr, align 8
  %7 = alloca i8, align 1
  %8 = alloca ptr, align 8
  %9 = alloca ptr, align 8
  store ptr %0, ptr %4, align 8
  store ptr %1, ptr %5, align 8
  store ptr %2, ptr %6, align 8
  call void @llvm.lifetime.start.p0(i64 1, ptr %7) #3
  store i8 0, ptr %7, align 1
  call void @llvm.lifetime.start.p0(i64 8, ptr %8) #3
  %10 = load ptr, ptr %4, align 8
  %11 = load ptr, ptr %5, align 8
  %12 = call ptr @GENERIC_INTERNAL_CreateFullPath(ptr noundef %10, ptr noundef %11)
  store ptr %12, ptr %8, align 8
  call void @llvm.lifetime.start.p0(i64 8, ptr %9) #3
  %13 = load ptr, ptr %4, align 8
  %14 = load ptr, ptr %6, align 8
  %15 = call ptr @GENERIC_INTERNAL_CreateFullPath(ptr noundef %13, ptr noundef %14)
  store ptr %15, ptr %9, align 8
  %16 = load ptr, ptr %8, align 8
  %17 = icmp ne ptr %16, null
  br i1 %17, label %18, label %26

18:                                               ; preds = %3
  %19 = load ptr, ptr %9, align 8
  %20 = icmp ne ptr %19, null
  br i1 %20, label %21, label %26

21:                                               ; preds = %18
  %22 = load ptr, ptr %8, align 8
  %23 = load ptr, ptr %9, align 8
  %24 = call zeroext i1 @SDL_RenamePath_REAL(ptr noundef %22, ptr noundef %23)
  %25 = zext i1 %24 to i8
  store i8 %25, ptr %7, align 1
  br label %26

26:                                               ; preds = %21, %18, %3
  %27 = load ptr, ptr %8, align 8
  call void @SDL_free_REAL(ptr noundef %27)
  %28 = load ptr, ptr %9, align 8
  call void @SDL_free_REAL(ptr noundef %28)
  %29 = load i8, ptr %7, align 1, !range !3, !noundef !4
  %30 = trunc i8 %29 to i1
  call void @llvm.lifetime.end.p0(i64 8, ptr %9) #3
  call void @llvm.lifetime.end.p0(i64 8, ptr %8) #3
  call void @llvm.lifetime.end.p0(i64 1, ptr %7) #3
  ret i1 %30
}