; Function Attrs: nounwind uwtable
define internal zeroext i1 @GENERIC_RenameStoragePath(ptr noundef %0, ptr noundef %1, ptr noundef %2) #0 {
  %4 = alloca ptr, align 8
  %5 = alloca ptr, align 8
  call void @llvm.lifetime.start.p0(i64 8, ptr nonnull %5) #4
  store ptr null, ptr %5, align 8
  %.not.i = icmp eq ptr %0, null
  %6 = select i1 %.not.i, ptr @.str.6, ptr %0
  %7 = call i32 (ptr, ptr, ...) @SDL_asprintf_REAL(ptr noundef nonnull %5, ptr noundef nonnull @.str.4, ptr noundef nonnull %6, ptr noundef %1) #4
  %8 = load ptr, ptr %5, align 8
  call void @llvm.lifetime.end.p0(i64 8, ptr nonnull %5) #4
  call void @llvm.lifetime.start.p0(i64 8, ptr nonnull %4) #4
  store ptr null, ptr %4, align 8
  %9 = call i32 (ptr, ptr, ...) @SDL_asprintf_REAL(ptr noundef nonnull %4, ptr noundef nonnull @.str.4, ptr noundef nonnull %6, ptr noundef %2) #4
  %10 = load ptr, ptr %4, align 8
  call void @llvm.lifetime.end.p0(i64 8, ptr nonnull %4) #4
  %11 = icmp ne ptr %8, null
  %12 = icmp ne ptr %10, null
  %or.cond = select i1 %11, i1 %12, i1 false
  br i1 %or.cond, label %13, label %15

13:                                               ; preds = %3
  %14 = call zeroext i1 @SDL_RenamePath_REAL(ptr noundef nonnull %8, ptr noundef nonnull %10) #4
  br label %15

15:                                               ; preds = %13, %3
  %.0 = phi i1 [ %14, %13 ], [ false, %3 ]
  call void @SDL_free_REAL(ptr noundef %8) #4
  call void @SDL_free_REAL(ptr noundef %10) #4
  ret i1 %.0
}